target datalayout = "e-m:e-p270:32:32-p271:32:32-p272:64:64-i64:64-i128:128-f80:128-n8:16:32:64-S128"
target triple = "x86_64-pc-linux-gnu"

%"struct.dpx::GenericHeader" = type { i32, i32, [8 x i8], i32, i32, i32, i32, i32, [100 x i8], [24 x i8], [100 x i8], [200 x i8], [200 x i8], i32, [104 x i8], i16, i16, i32, i32, [8 x %"struct.dpx::ImageElement"], [52 x i8], i32, i32, float, float, i32, i32, [100 x i8], [24 x i8], [32 x i8], [32 x i8], [4 x i16], [2 x i32], float, float, [20 x i8] }
%"struct.dpx::ImageElement" = type { i32, i32, float, i32, float, i8, i8, i8, i8, i16, i16, i32, i32, i32, [32 x i8] }

; Function Attrs: inlinehint mustprogress nounwind uwtable
define linkonce_odr hidden noundef i32 @_ZNK3dpx13GenericHeader15ImageDescriptorEi(ptr noundef nonnull align 4 dereferenceable(1664) %0, i32 noundef %1) #0 comdat align 2 {
  %3 = alloca i32, align 4
  %4 = alloca ptr, align 8
  %5 = alloca i32, align 4
  store ptr %0, ptr %4, align 8, !tbaa !19
  store i32 %1, ptr %5, align 4, !tbaa !42
  %6 = load ptr, ptr %4, align 8
  %7 = load i32, ptr %5, align 4, !tbaa !42
  %8 = icmp slt i32 %7, 0
  br i1 %8, label %12, label %9

9:                                                ; preds = %2
  %10 = load i32, ptr %5, align 4, !tbaa !42
  %11 = icmp sge i32 %10, 8
  br i1 %11, label %12, label %13

12:                                               ; preds = %9, %2
  store i32 255, ptr %3, align 4
  br label %21

13:                                               ; preds = %9
  %14 = getelementptr inbounds nuw %"struct.dpx::GenericHeader", ptr %6, i32 0, i32 19
  %15 = load i32, ptr %5, align 4, !tbaa !42
  %16 = sext i32 %15 to i64
  %17 = getelementptr inbounds [8 x %"struct.dpx::ImageElement"], ptr %14, i64 0, i64 %16
  %18 = getelementptr inbounds nuw %"struct.dpx::ImageElement", ptr %17, i32 0, i32 5
  %19 = load i8, ptr %18, align 4, !tbaa !84
  %20 = zext i8 %19 to i32
  store i32 %20, ptr %3, align 4
  br label %21

21:                                               ; preds = %13, %12
  %22 = load i32, ptr %3, align 4
  ret i32 %22
}

; Function Attrs: mustprogress uwtable
define hidden noundef i32 @_ZNK3dpx13GenericHeader17ImageElementCountEv(ptr noundef nonnull align 4 dereferenceable(1664) %0) #7 align 2 {
  %2 = alloca i32, align 4
  %3 = alloca ptr, align 8
  %4 = alloca i32, align 4
  store ptr %0, ptr %3, align 8, !tbaa !19
  %5 = load ptr, ptr %3, align 8
  %6 = getelementptr inbounds nuw %"struct.dpx::GenericHeader", ptr %5, i32 0, i32 16
  %7 = load i16, ptr %6, align 2, !tbaa !32
  %8 = zext i16 %7 to i32
  %9 = icmp sgt i32 %8, 0
  br i1 %9, label %10, label %19

10:                                               ; preds = %1
  %11 = getelementptr inbounds nuw %"struct.dpx::GenericHeader", ptr %5, i32 0, i32 16
  %12 = load i16, ptr %11, align 2, !tbaa !32
  %13 = zext i16 %12 to i32
  %14 = icmp sle i32 %13, 8
  br i1 %14, label %15, label %19

15:                                               ; preds = %10
  %16 = getelementptr inbounds nuw %"struct.dpx::GenericHeader", ptr %5, i32 0, i32 16
  %17 = load i16, ptr %16, align 2, !tbaa !32
  %18 = zext i16 %17 to i32
  store i32 %18, ptr %2, align 4
  br label %33

19:                                               ; preds = %10, %1
  call void @llvm.lifetime.start.p0(i64 4, ptr %4) #5
  store i32 0, ptr %4, align 4, !tbaa !42
  br label %20

20:                                               ; preds = %28, %19
  %21 = load i32, ptr %4, align 4, !tbaa !42
  %22 = icmp slt i32 %21, 8
  br i1 %22, label %23, label %31

23:                                               ; preds = %20
  %24 = load i32, ptr %4, align 4, !tbaa !42
  %25 = call noundef i32 @_ZNK3dpx13GenericHeader15ImageDescriptorEi(ptr noundef nonnull align 4 dereferenceable(1664) %5, i32 noundef %24)
  %26 = icmp eq i32 %25, 255
  br i1 %26, label %27, label %28

27:                                               ; preds = %23
  br label %31

28:                                               ; preds = %23
  %29 = load i32, ptr %4, align 4, !tbaa !42
  %30 = add nsw i32 %29, 1
  store i32 %30, ptr %4, align 4, !tbaa !42
  br label %20, !llvm.loop !113

31:                                               ; preds = %27, %20
  %32 = load i32, ptr %4, align 4, !tbaa !42
  store i32 %32, ptr %2, align 4
  call void @llvm.lifetime.end.p0(i64 4, ptr %4) #5
  br label %33

33:                                               ; preds = %31, %15
  %34 = load i32, ptr %2, align 4
  ret i32 %34
}