; Function Attrs: mustprogress nofree norecurse nosync nounwind willreturn memory(argmem: read) uwtable
define hidden noundef i32 @_ZNK3dpx13GenericHeader17ImageElementCountEv(ptr noundef nonnull readonly align 4 captures(none) dereferenceable(1664) %0) local_unnamed_addr #11 align 2 {
  %2 = getelementptr inbounds nuw i8, ptr %0, i64 770
  %3 = load i16, ptr %2, align 2, !tbaa !67
  %4 = zext nneg i16 %3 to i32
  %5 = add i16 %3, -1
  %or.cond = icmp ult i16 %5, 8
  br i1 %or.cond, label %.loopexit, label %.preheader

.preheader:                                       ; preds = %1
  %invariant.gep = getelementptr inbounds nuw i8, ptr %0, i64 800
  br label %_ZNK3dpx13GenericHeader15ImageDescriptorEi.exit

_ZNK3dpx13GenericHeader15ImageDescriptorEi.exit:  ; preds = %.preheader, %9
  %indvars.iv = phi i64 [ 0, %.preheader ], [ %indvars.iv.next, %9 ]
  %6 = mul nuw nsw i64 %indvars.iv, 72
  %gep = getelementptr inbounds nuw i8, ptr %invariant.gep, i64 %6
  %7 = load i8, ptr %gep, align 4, !tbaa !65
  %8 = icmp eq i8 %7, -1
  br i1 %8, label %.loopexit.loopexit.split.loop.exit, label %9

9:                                                ; preds = %_ZNK3dpx13GenericHeader15ImageDescriptorEi.exit
  %indvars.iv.next = add nuw nsw i64 %indvars.iv, 1
  %exitcond.not = icmp eq i64 %indvars.iv.next, 8
  br i1 %exitcond.not, label %.loopexit, label %_ZNK3dpx13GenericHeader15ImageDescriptorEi.exit, !llvm.loop !66

.loopexit.loopexit.split.loop.exit:               ; preds = %_ZNK3dpx13GenericHeader15ImageDescriptorEi.exit
  %10 = trunc nuw nsw i64 %indvars.iv to i32
  br label %.loopexit

.loopexit:                                        ; preds = %9, %.loopexit.loopexit.split.loop.exit, %1
  %.05 = phi i32 [ %4, %1 ], [ %10, %.loopexit.loopexit.split.loop.exit ], [ 8, %9 ]
  ret i32 %.05
}